; Listing generated by Microsoft (R) Optimizing Compiler Version 19.44.35227.0 

	TITLE	X:\Github\AddLookXPtoEXE_x64\Release\AddLookXPtoEXE.obj
	.686P
	.XMM
	include listing.inc
	.model	flat

INCLUDELIB LIBCMT
INCLUDELIB OLDNAMES

PUBLIC	?jours@@3PAPADA					; jours
PUBLIC	??_C@_08KPMLOFAI@dimanche@			; `string'
PUBLIC	??_C@_05CACBMNOA@lundi@				; `string'
PUBLIC	??_C@_05GENCMHCA@mardi@				; `string'
PUBLIC	??_C@_08KNENJIAH@mercredi@			; `string'
PUBLIC	??_C@_05BBIAGJOB@jeudi@				; `string'
PUBLIC	??_C@_08DOKDICKJ@vendredi@			; `string'
PUBLIC	??_C@_06OKAADBBH@samedi@			; `string'
PUBLIC	?mois@@3PAPADA					; mois
PUBLIC	??_C@_07KHGAAKMH@janvier@			; `string'
PUBLIC	??_C@_07FBDDJNCL@f?ivrier@			; `string'
PUBLIC	??_C@_04IIICLNHD@mars@				; `string'
PUBLIC	??_C@_05LEHPCLNP@avril@				; `string'
PUBLIC	??_C@_03OKNNHOME@mai@				; `string'
PUBLIC	??_C@_04KMGIBCG@juin@				; `string'
PUBLIC	??_C@_07GCCAFKDF@juillet@			; `string'
PUBLIC	??_C@_04OHKDKHAD@aout@				; `string'
PUBLIC	??_C@_09EEMDDJBA@septembre@			; `string'
PUBLIC	??_C@_07HMEJHHOG@octobre@			; `string'
PUBLIC	??_C@_08OMGPNHCA@novembre@			; `string'
PUBLIC	??_C@_08NJPDGCIK@d?icembre@			; `string'
PUBLIC	?oldProcSplit@@3P6GJPAUHWND__@@IIJ@ZA		; oldProcSplit
PUBLIC	?hInst@@3PAUHINSTANCE__@@A			; hInst
PUBLIC	?hInstance@@3PAUHINSTANCE__@@A			; hInstance
PUBLIC	?ofn@@3UtagOFNA@@A				; ofn
PUBLIC	?iccex@@3UtagINITCOMMONCONTROLSEX@@A		; iccex
PUBLIC	?Temporaire@@3PADA				; Temporaire
PUBLIC	?tmpXP@@3PADA					; tmpXP
PUBLIC	?cxcli@@3JA					; cxcli
PUBLIC	?cycli@@3JA					; cycli
_BSS	SEGMENT
?oldProcSplit@@3P6GJPAUHWND__@@IIJ@ZA DD 01H DUP (?)	; oldProcSplit
?hInst@@3PAUHINSTANCE__@@A DD 01H DUP (?)		; hInst
?hInstance@@3PAUHINSTANCE__@@A DD 01H DUP (?)		; hInstance
?ofn@@3UtagOFNA@@A DB 058H DUP (?)			; ofn
	ALIGN	8

?iccex@@3UtagINITCOMMONCONTROLSEX@@A DQ 01H DUP (?)	; iccex
?Temporaire@@3PADA DB 0100H DUP (?)			; Temporaire
?tmpXP@@3PADA DB 0100H DUP (?)				; tmpXP
?cxcli@@3JA DD	01H DUP (?)				; cxcli
?cycli@@3JA DD	01H DUP (?)				; cycli
_BSS	ENDS
;	COMDAT ??_C@_08NJPDGCIK@d?icembre@
CONST	SEGMENT
??_C@_08NJPDGCIK@d?icembre@ DB 'd', 0e9H, 'cembre', 00H	; `string'
CONST	ENDS
;	COMDAT ??_C@_08OMGPNHCA@novembre@
CONST	SEGMENT
??_C@_08OMGPNHCA@novembre@ DB 'novembre', 00H		; `string'
CONST	ENDS
;	COMDAT ??_C@_07HMEJHHOG@octobre@
CONST	SEGMENT
??_C@_07HMEJHHOG@octobre@ DB 'octobre', 00H		; `string'
CONST	ENDS
;	COMDAT ??_C@_09EEMDDJBA@septembre@
CONST	SEGMENT
??_C@_09EEMDDJBA@septembre@ DB 'septembre', 00H		; `string'
CONST	ENDS
;	COMDAT ??_C@_04OHKDKHAD@aout@
CONST	SEGMENT
??_C@_04OHKDKHAD@aout@ DB 'aout', 00H			; `string'
CONST	ENDS
;	COMDAT ??_C@_07GCCAFKDF@juillet@
CONST	SEGMENT
??_C@_07GCCAFKDF@juillet@ DB 'juillet', 00H		; `string'
CONST	ENDS
;	COMDAT ??_C@_04KMGIBCG@juin@
CONST	SEGMENT
??_C@_04KMGIBCG@juin@ DB 'juin', 00H			; `string'
CONST	ENDS
;	COMDAT ??_C@_03OKNNHOME@mai@
CONST	SEGMENT
??_C@_03OKNNHOME@mai@ DB 'mai', 00H			; `string'
CONST	ENDS
;	COMDAT ??_C@_05LEHPCLNP@avril@
CONST	SEGMENT
??_C@_05LEHPCLNP@avril@ DB 'avril', 00H			; `string'
CONST	ENDS
;	COMDAT ??_C@_04IIICLNHD@mars@
CONST	SEGMENT
??_C@_04IIICLNHD@mars@ DB 'mars', 00H			; `string'
CONST	ENDS
;	COMDAT ??_C@_07FBDDJNCL@f?ivrier@
CONST	SEGMENT
??_C@_07FBDDJNCL@f?ivrier@ DB 'f', 0e9H, 'vrier', 00H	; `string'
CONST	ENDS
;	COMDAT ??_C@_07KHGAAKMH@janvier@
CONST	SEGMENT
??_C@_07KHGAAKMH@janvier@ DB 'janvier', 00H		; `string'
CONST	ENDS
;	COMDAT ??_C@_06OKAADBBH@samedi@
CONST	SEGMENT
??_C@_06OKAADBBH@samedi@ DB 'samedi', 00H		; `string'
CONST	ENDS
;	COMDAT ??_C@_08DOKDICKJ@vendredi@
CONST	SEGMENT
??_C@_08DOKDICKJ@vendredi@ DB 'vendredi', 00H		; `string'
CONST	ENDS
;	COMDAT ??_C@_05BBIAGJOB@jeudi@
CONST	SEGMENT
??_C@_05BBIAGJOB@jeudi@ DB 'jeudi', 00H			; `string'
CONST	ENDS
;	COMDAT ??_C@_08KNENJIAH@mercredi@
CONST	SEGMENT
??_C@_08KNENJIAH@mercredi@ DB 'mercredi', 00H		; `string'
CONST	ENDS
;	COMDAT ??_C@_05GENCMHCA@mardi@
CONST	SEGMENT
??_C@_05GENCMHCA@mardi@ DB 'mardi', 00H			; `string'
CONST	ENDS
;	COMDAT ??_C@_05CACBMNOA@lundi@
CONST	SEGMENT
??_C@_05CACBMNOA@lundi@ DB 'lundi', 00H			; `string'
CONST	ENDS
;	COMDAT ??_C@_08KPMLOFAI@dimanche@
CONST	SEGMENT
??_C@_08KPMLOFAI@dimanche@ DB 'dimanche', 00H		; `string'
CONST	ENDS
_DATA	SEGMENT
?jours@@3PAPADA DD FLAT:??_C@_08KPMLOFAI@dimanche@	; jours
	DD	FLAT:??_C@_05CACBMNOA@lundi@
	DD	FLAT:??_C@_05GENCMHCA@mardi@
	DD	FLAT:??_C@_08KNENJIAH@mercredi@
	DD	FLAT:??_C@_05BBIAGJOB@jeudi@
	DD	FLAT:??_C@_08DOKDICKJ@vendredi@
	DD	FLAT:??_C@_06OKAADBBH@samedi@
?mois@@3PAPADA DD FLAT:??_C@_07KHGAAKMH@janvier@	; mois
	DD	FLAT:??_C@_07FBDDJNCL@f?ivrier@
	DD	FLAT:??_C@_04IIICLNHD@mars@
	DD	FLAT:??_C@_05LEHPCLNP@avril@
	DD	FLAT:??_C@_03OKNNHOME@mai@
	DD	FLAT:??_C@_04KMGIBCG@juin@
	DD	FLAT:??_C@_07GCCAFKDF@juillet@
	DD	FLAT:??_C@_04OHKDKHAD@aout@
	DD	FLAT:??_C@_09EEMDDJBA@septembre@
	DD	FLAT:??_C@_07HMEJHHOG@octobre@
	DD	FLAT:??_C@_08OMGPNHCA@novembre@
	DD	FLAT:??_C@_08NJPDGCIK@d?icembre@
_DATA	ENDS
PUBLIC	_WinMain@16
PUBLIC	___local_stdio_printf_options
PUBLIC	_fprintf
PUBLIC	?DlgMainProc@@YGJPAUHWND__@@IIJ@Z		; DlgMainProc
PUBLIC	?Tocken@@YIXXZ					; Tocken
PUBLIC	?CreateResource@@YIHXZ				; CreateResource
PUBLIC	?ActiverCommandes@@YIXPAUHWND__@@_N@Z		; ActiverCommandes
PUBLIC	?_OptionsStorage@?1??__local_stdio_printf_options@@9@4_KA ; `__local_stdio_printf_options'::`2'::_OptionsStorage
PUBLIC	??_C@_0DJ@JOIEECFE@AddLookXP2EXE?5a?5d?imar?i?5?$CFs?5le?5?$CFd@ ; `string'
PUBLIC	??_C@_0DG@DOABNEFF@Nous?5sommes?5?$CFs?0?5le?5?$CF2d?5?$CFs?5?$CF4d?5?0@ ; `string'
PUBLIC	??_C@_0CD@BIEAGHIH@Fichier?5Executable?5?$CI?$CK?4exe?$CJ?$AA?$CK?4ex@ ; `string'
PUBLIC	??_C@_03JACLIBNI@exe@				; `string'
PUBLIC	??_C@_0CB@JKHJBCAH@Ajouter?5un?5fichier?5Executable?4?4@ ; `string'
PUBLIC	??_C@_09PJAOEDB@?4manifest@			; `string'
PUBLIC	??_C@_04PMOCAHAA@open@				; `string'
PUBLIC	??_C@_0BE@POPFGFGJ@SeShutdownPrivilege@		; `string'
PUBLIC	??_C@_02CHHAKFFB@w?$CL@				; `string'
PUBLIC	??_C@_0DJ@MOGOKPBF@?$DM?$DPxml?5version?$DN?$CC1?40?$CC?5encoding?$DN?$CCU@ ; `string'
PUBLIC	??_C@_0EL@BKCMHCOD@?$DMassembly?5xmlns?$DN?$CCurn?3schemas?9mi@ ; `string'
PUBLIC	??_C@_0HE@MDJEOHAB@?$DMassemblyIdentity?5version?$DN?$CC1?40?4@ ; `string'
PUBLIC	??_C@_0EL@EOHDALDH@?$DMdescription?$DOTapez?5ici?5une?5desc@ ; `string'
PUBLIC	??_C@_0CC@GNHAFGOC@?$DMdependency?$DO?5?$DMdependentAssembly@ ; `string'
PUBLIC	??_C@_0KJ@DFDFOHMN@?$DMassemblyIdentity?5type?$DN?$CCwin32?$CC?5@ ; `string'
PUBLIC	??_C@_0DA@JIIGEANJ@?$DM?1dependentAssembly?$DO?6?$DM?1dependen@ ; `string'
EXTRN	__imp__CreateFileA@28:PROC
EXTRN	__imp__GetCurrentProcess@0:PROC
EXTRN	__imp__OpenProcessToken@12:PROC
EXTRN	__imp__GetLocalTime@4:PROC
EXTRN	__imp__AdjustTokenPrivileges@24:PROC
EXTRN	__imp__LookupPrivilegeValueA@12:PROC
EXTRN	__imp__GetComputerNameA@8:PROC
EXTRN	__imp__CreateSolidBrush@4:PROC
EXTRN	__imp__SetBkMode@8:PROC
EXTRN	__imp__SetTextColor@8:PROC
EXTRN	__imp__wsprintfA:PROC
EXTRN	__imp__PostQuitMessage@4:PROC
EXTRN	__imp__DialogBoxParamA@20:PROC
EXTRN	__imp__EndDialog@8:PROC
EXTRN	__imp__GetDlgItem@8:PROC
EXTRN	__imp__SetDlgItemTextA@12:PROC
EXTRN	__imp__SetTimer@16:PROC
EXTRN	__imp__EnableWindow@8:PROC
EXTRN	__imp__SetWindowTextA@8:PROC
EXTRN	__imp__SetClassLongA@12:PROC
EXTRN	__imp__LoadIconA@8:PROC
EXTRN	__imp__ShellExecuteA@24:PROC
EXTRN	__imp__GetOpenFileNameA@4:PROC
EXTRN	__imp__InitCommonControls@0:PROC
EXTRN	_fclose:PROC
EXTRN	_fopen:PROC
EXTRN	___stdio_common_vfprintf:PROC
EXTRN	@__security_check_cookie@4:PROC
EXTRN	_memset:PROC
EXTRN	___security_cookie:DWORD
;	COMDAT ?_OptionsStorage@?1??__local_stdio_printf_options@@9@4_KA
_BSS	SEGMENT
?_OptionsStorage@?1??__local_stdio_printf_options@@9@4_KA DQ 01H DUP (?) ; `__local_stdio_printf_options'::`2'::_OptionsStorage
_BSS	ENDS
;	COMDAT ??_C@_0DA@JIIGEANJ@?$DM?1dependentAssembly?$DO?6?$DM?1dependen@
CONST	SEGMENT
??_C@_0DA@JIIGEANJ@?$DM?1dependentAssembly?$DO?6?$DM?1dependen@ DB '</dep'
	DB	'endentAssembly>', 0aH, '</dependency>', 0aH, '</assembly>', 0aH
	DB	00H						; `string'
CONST	ENDS
;	COMDAT ??_C@_0KJ@DFDFOHMN@?$DMassemblyIdentity?5type?$DN?$CCwin32?$CC?5@
CONST	SEGMENT
??_C@_0KJ@DFDFOHMN@?$DMassemblyIdentity?5type?$DN?$CCwin32?$CC?5@ DB '<as'
	DB	'semblyIdentity type="win32" name="Microsoft.Windows.Common-Co'
	DB	'ntrols" version="6.0.0.0" processorArchitecture="X86" publicK'
	DB	'eyToken="6595b64144ccf1df" language="*" />', 0aH, 00H ; `string'
CONST	ENDS
;	COMDAT ??_C@_0CC@GNHAFGOC@?$DMdependency?$DO?5?$DMdependentAssembly@
CONST	SEGMENT
??_C@_0CC@GNHAFGOC@?$DMdependency?$DO?5?$DMdependentAssembly@ DB '<depend'
	DB	'ency> <dependentAssembly>', 0aH, 00H	; `string'
CONST	ENDS
;	COMDAT ??_C@_0EL@EOHDALDH@?$DMdescription?$DOTapez?5ici?5une?5desc@
CONST	SEGMENT
??_C@_0EL@EOHDALDH@?$DMdescription?$DOTapez?5ici?5une?5desc@ DB '<descrip'
	DB	'tion>Tapez ici une description de votre application</descript'
	DB	'ion>', 0aH, 00H				; `string'
CONST	ENDS
;	COMDAT ??_C@_0HE@MDJEOHAB@?$DMassemblyIdentity?5version?$DN?$CC1?40?4@
CONST	SEGMENT
??_C@_0HE@MDJEOHAB@?$DMassemblyIdentity?5version?$DN?$CC1?40?4@ DB '<asse'
	DB	'mblyIdentity version="1.0.0.0" processorArchitecture="X86" na'
	DB	'me="Microsoft.Windows.AddLookXP" type="win32" />', 0aH, 00H ; `string'
CONST	ENDS
;	COMDAT ??_C@_0EL@BKCMHCOD@?$DMassembly?5xmlns?$DN?$CCurn?3schemas?9mi@
CONST	SEGMENT
??_C@_0EL@BKCMHCOD@?$DMassembly?5xmlns?$DN?$CCurn?3schemas?9mi@ DB '<asse'
	DB	'mbly xmlns="urn:schemas-microsoft-com:asm.v1" manifestVersion'
	DB	'="1.0">', 0aH, 00H				; `string'
CONST	ENDS
;	COMDAT ??_C@_0DJ@MOGOKPBF@?$DM?$DPxml?5version?$DN?$CC1?40?$CC?5encoding?$DN?$CCU@
CONST	SEGMENT
??_C@_0DJ@MOGOKPBF@?$DM?$DPxml?5version?$DN?$CC1?40?$CC?5encoding?$DN?$CCU@ DB '<'
	DB	'?xml version="1.0" encoding="UTF-8" standalone="yes"?>', 0aH, 00H ; `string'
CONST	ENDS
;	COMDAT ??_C@_02CHHAKFFB@w?$CL@
CONST	SEGMENT
??_C@_02CHHAKFFB@w?$CL@ DB 'w+', 00H			; `string'
CONST	ENDS
;	COMDAT ??_C@_0BE@POPFGFGJ@SeShutdownPrivilege@
CONST	SEGMENT
??_C@_0BE@POPFGFGJ@SeShutdownPrivilege@ DB 'SeShutdownPrivilege', 00H ; `string'
CONST	ENDS
;	COMDAT ??_C@_04PMOCAHAA@open@
CONST	SEGMENT
??_C@_04PMOCAHAA@open@ DB 'open', 00H			; `string'
CONST	ENDS
;	COMDAT ??_C@_09PJAOEDB@?4manifest@
CONST	SEGMENT
??_C@_09PJAOEDB@?4manifest@ DB '.manifest', 00H		; `string'
CONST	ENDS
;	COMDAT ??_C@_0CB@JKHJBCAH@Ajouter?5un?5fichier?5Executable?4?4@
CONST	SEGMENT
??_C@_0CB@JKHJBCAH@Ajouter?5un?5fichier?5Executable?4?4@ DB 'Ajouter un f'
	DB	'ichier Executable...', 00H			; `string'
CONST	ENDS
;	COMDAT ??_C@_03JACLIBNI@exe@
CONST	SEGMENT
??_C@_03JACLIBNI@exe@ DB 'exe', 00H			; `string'
CONST	ENDS
;	COMDAT ??_C@_0CD@BIEAGHIH@Fichier?5Executable?5?$CI?$CK?4exe?$CJ?$AA?$CK?4ex@
CONST	SEGMENT
??_C@_0CD@BIEAGHIH@Fichier?5Executable?5?$CI?$CK?4exe?$CJ?$AA?$CK?4ex@ DB 'F'
	DB	'ichier Executable (*.exe)', 00H, '*.exe', 00H, 00H, 00H ; `string'
CONST	ENDS
;	COMDAT ??_C@_0DG@DOABNEFF@Nous?5sommes?5?$CFs?0?5le?5?$CF2d?5?$CFs?5?$CF4d?5?0@
CONST	SEGMENT
??_C@_0DG@DOABNEFF@Nous?5sommes?5?$CFs?0?5le?5?$CF2d?5?$CFs?5?$CF4d?5?0@ DB 'N'
	DB	'ous sommes %s, le %2d %s %4d , il est %.2d:%.2d:%.2d', 00H ; `string'
CONST	ENDS
;	COMDAT ??_C@_0DJ@JOIEECFE@AddLookXP2EXE?5a?5d?imar?i?5?$CFs?5le?5?$CFd@
CONST	SEGMENT
??_C@_0DJ@JOIEECFE@AddLookXP2EXE?5a?5d?imar?i?5?$CFs?5le?5?$CFd@ DB 'AddL'
	DB	'ookXP2EXE a d', 0e9H, 'mar', 0e9H, ' %s le %d %s %.4d ', 0e0H
	DB	' %.2d:%.2d:%.2d', 00H			; `string'
CONST	ENDS
; Function compile flags: /Ogtp
;	COMDAT ?ActiverCommandes@@YIXPAUHWND__@@_N@Z
_TEXT	SEGMENT
_hDlg$1$ = -4						; size = 4
?ActiverCommandes@@YIXPAUHWND__@@_N@Z PROC		; ActiverCommandes, COMDAT
; _hDlg$ = ecx
; _Actif$ = dl
; File X:\Github\AddLookXPtoEXE_x64\AddLookXPtoEXE.cpp
; Line 146
	push	ebp
	mov	ebp, esp
	push	ecx
	push	ebx
; Line 147
	movzx	ebx, dl
	mov	eax, ecx
	push	ebx
	push	1
	push	eax
	mov	DWORD PTR _hDlg$1$[ebp], eax
	call	DWORD PTR __imp__GetDlgItem@8
	push	eax
	call	DWORD PTR __imp__EnableWindow@8
; Line 148
	push	ebx
	push	3
	push	DWORD PTR _hDlg$1$[ebp]
	call	DWORD PTR __imp__GetDlgItem@8
	push	eax
	call	DWORD PTR __imp__EnableWindow@8
	pop	ebx
; Line 149
	mov	esp, ebp
	pop	ebp
	ret	0
?ActiverCommandes@@YIXPAUHWND__@@_N@Z ENDP		; ActiverCommandes
_TEXT	ENDS
; Function compile flags: /Ogtp
;	COMDAT ?CreateResource@@YIHXZ
_TEXT	SEGMENT
?CreateResource@@YIHXZ PROC				; CreateResource, COMDAT
; File X:\Github\AddLookXPtoEXE_x64\AddLookXPtoEXE.cpp
; Line 135
	push	esi
; Line 136
	push	OFFSET ??_C@_02CHHAKFFB@w?$CL@
	push	OFFSET ?tmpXP@@3PADA			; tmpXP
	call	_fopen
	mov	esi, eax
; Line 137
	push	OFFSET ??_C@_0DJ@MOGOKPBF@?$DM?$DPxml?5version?$DN?$CC1?40?$CC?5encoding?$DN?$CCU@
	push	esi
	call	_fprintf
; Line 138
	push	OFFSET ??_C@_0EL@BKCMHCOD@?$DMassembly?5xmlns?$DN?$CCurn?3schemas?9mi@
	push	esi
	call	_fprintf
; Line 139
	push	OFFSET ??_C@_0HE@MDJEOHAB@?$DMassemblyIdentity?5version?$DN?$CC1?40?4@
	push	esi
	call	_fprintf
; Line 140
	push	OFFSET ??_C@_0EL@EOHDALDH@?$DMdescription?$DOTapez?5ici?5une?5desc@
	push	esi
	call	_fprintf
; Line 141
	push	OFFSET ??_C@_0CC@GNHAFGOC@?$DMdependency?$DO?5?$DMdependentAssembly@
	push	esi
	call	_fprintf
; Line 142
	push	OFFSET ??_C@_0KJ@DFDFOHMN@?$DMassemblyIdentity?5type?$DN?$CCwin32?$CC?5@
	push	esi
	call	_fprintf
; Line 143
	push	OFFSET ??_C@_0DA@JIIGEANJ@?$DM?1dependentAssembly?$DO?6?$DM?1dependen@
	push	esi
	call	_fprintf
	add	esp, 64					; 00000040H
; Line 144
	push	esi
	call	_fclose
	add	esp, 4
	pop	esi
; Line 145
	ret	0
?CreateResource@@YIHXZ ENDP				; CreateResource
_TEXT	ENDS
; Function compile flags: /Ogtp
;	COMDAT ?Tocken@@YIXXZ
_TEXT	SEGMENT
_hToken$ = -24						; size = 4
_tkp$ = -20						; size = 16
__$ArrayPad$ = -4					; size = 4
?Tocken@@YIXXZ PROC					; Tocken, COMDAT
; File X:\Github\AddLookXPtoEXE_x64\AddLookXPtoEXE.cpp
; Line 125
	push	ebp
	mov	ebp, esp
	sub	esp, 24					; 00000018H
	mov	eax, DWORD PTR ___security_cookie
	xor	eax, ebp
	mov	DWORD PTR __$ArrayPad$[ebp], eax
; Line 128
	lea	eax, DWORD PTR _hToken$[ebp]
	push	eax
	push	40					; 00000028H
	call	DWORD PTR __imp__GetCurrentProcess@0
	push	eax
	call	DWORD PTR __imp__OpenProcessToken@12
; Line 129
	lea	eax, DWORD PTR _tkp$[ebp+4]
	push	eax
	push	OFFSET ??_C@_0BE@POPFGFGJ@SeShutdownPrivilege@
	push	0
	call	DWORD PTR __imp__LookupPrivilegeValueA@12
; Line 132
	push	0
	push	0
	push	0
	lea	eax, DWORD PTR _tkp$[ebp]
	mov	DWORD PTR _tkp$[ebp], 1
	push	eax
	push	0
	push	DWORD PTR _hToken$[ebp]
	mov	DWORD PTR _tkp$[ebp+12], 2
	call	DWORD PTR __imp__AdjustTokenPrivileges@24
; Line 133
	mov	ecx, DWORD PTR __$ArrayPad$[ebp]
	xor	ecx, ebp
	call	@__security_check_cookie@4
	mov	esp, ebp
	pop	ebp
	ret	0
?Tocken@@YIXXZ ENDP					; Tocken
_TEXT	ENDS
; Function compile flags: /Ogtp
;	COMDAT ?DlgMainProc@@YGJPAUHWND__@@IIJ@Z
_TEXT	SEGMENT
_ofn$1 = -112						; size = 88
_cmp$2 = -24						; size = 4
_st$3 = -20						; size = 16
_st$4 = -20						; size = 16
__$ArrayPad$ = -4					; size = 4
_hDlg$ = 8						; size = 4
_msg$ = 12						; size = 4
_wParam$ = 16						; size = 4
_lParam$ = 20						; size = 4
?DlgMainProc@@YGJPAUHWND__@@IIJ@Z PROC			; DlgMainProc, COMDAT
; File X:\Github\AddLookXPtoEXE_x64\AddLookXPtoEXE.cpp
; Line 36
	push	ebp
	mov	ebp, esp
	sub	esp, 112				; 00000070H
	mov	eax, DWORD PTR ___security_cookie
	xor	eax, ebp
	mov	DWORD PTR __$ArrayPad$[ebp], eax
	push	ebx
	push	esi
	mov	esi, DWORD PTR _wParam$[ebp]
	push	edi
	mov	edi, DWORD PTR _hDlg$[ebp]
; Line 37
	push	14803425				; 00e1e1e1H
	call	DWORD PTR __imp__CreateSolidBrush@4
; Line 38
	mov	ecx, DWORD PTR _msg$[ebp]
	mov	ebx, eax
	cmp	ecx, 306				; 00000132H
	ja	$LN32@DlgMainPro
	je	$LN26@DlgMainPro
	cmp	ecx, 273				; 00000111H
	ja	$LN33@DlgMainPro
	je	$LN13@DlgMainPro
	cmp	ecx, 5
	je	$LN10@DlgMainPro
	cmp	ecx, 272				; 00000110H
	jne	$LN27@DlgMainPro
; Line 44
	push	106					; 0000006aH
	push	DWORD PTR ?hInst@@3PAUHINSTANCE__@@A	; hInst
	call	DWORD PTR __imp__LoadIconA@8
	push	eax
	push	-14					; fffffff2H
	push	edi
	call	DWORD PTR __imp__SetClassLongA@12
; Line 46
	call	DWORD PTR __imp__InitCommonControls@0
; Line 47
	xor	dl, dl
	mov	ecx, edi
	call	?ActiverCommandes@@YIXPAUHWND__@@_N@Z	; ActiverCommandes
; Line 49
	lea	eax, DWORD PTR _st$3[ebp]
	push	eax
	call	DWORD PTR __imp__GetLocalTime@4
; Line 50
	movzx	eax, WORD PTR _st$3[ebp+12]
	push	eax
	movzx	eax, WORD PTR _st$3[ebp+10]
	push	eax
	movzx	eax, WORD PTR _st$3[ebp+8]
	push	eax
	movzx	eax, WORD PTR _st$3[ebp]
	push	eax
	movzx	eax, WORD PTR _st$3[ebp+2]
	push	DWORD PTR ?mois@@3PAPADA[eax*4-4]
	movzx	eax, WORD PTR _st$3[ebp+6]
	push	eax
	movzx	eax, WORD PTR _st$3[ebp+4]
	push	DWORD PTR ?jours@@3PAPADA[eax*4]
	push	OFFSET ??_C@_0DJ@JOIEECFE@AddLookXP2EXE?5a?5d?imar?i?5?$CFs?5le?5?$CFd@
	push	OFFSET ?Temporaire@@3PADA		; Temporaire
	call	DWORD PTR __imp__wsprintfA
	add	esp, 36					; 00000024H
; Line 51
	push	OFFSET ?Temporaire@@3PADA		; Temporaire
	push	edi
	call	DWORD PTR __imp__SetWindowTextA@8
; Line 52
	push	0
	push	1000					; 000003e8H
	push	1000					; 000003e8H
	push	edi
	call	DWORD PTR __imp__SetTimer@16
; Line 54
	lea	eax, DWORD PTR _cmp$2[ebp]
	mov	DWORD PTR _cmp$2[ebp], 80		; 00000050H
	push	eax
	push	OFFSET ?Temporaire@@3PADA		; Temporaire
	call	DWORD PTR __imp__GetComputerNameA@8
; Line 55
	push	OFFSET ?Temporaire@@3PADA		; Temporaire
	push	1001					; 000003e9H
; Line 123
	push	edi
	call	DWORD PTR __imp__SetDlgItemTextA@12
	pop	edi
; Line 124
	pop	esi
	mov	eax, 1
	pop	ebx
	mov	ecx, DWORD PTR __$ArrayPad$[ebp]
	xor	ecx, ebp
	call	@__security_check_cookie@4
	mov	esp, ebp
	pop	ebp
	ret	16					; 00000010H
$LN10@DlgMainPro:
; Line 65
	test	esi, esi
	je	SHORT $LN12@DlgMainPro
	cmp	esi, 2
	jne	SHORT $LN27@DlgMainPro
$LN12@DlgMainPro:
; Line 67
	mov	ecx, DWORD PTR _lParam$[ebp]
	movzx	eax, cx
	shr	ecx, 16					; 00000010H
	mov	DWORD PTR ?cxcli@@3JA, eax		; cxcli
	mov	DWORD PTR ?cycli@@3JA, ecx		; cycli
$LN27@DlgMainPro:
; Line 121
	xor	eax, eax
$LN1@DlgMainPro:
	pop	edi
; Line 124
	pop	esi
	pop	ebx
	mov	ecx, DWORD PTR __$ArrayPad$[ebp]
	xor	ecx, ebp
	call	@__security_check_cookie@4
	mov	esp, ebp
	pop	ebp
	ret	16					; 00000010H
$LN13@DlgMainPro:
; Line 73
	movzx	eax, si
	cmp	eax, 3
	ja	$LN31@DlgMainPro
	je	SHORT $LN17@DlgMainPro
	sub	eax, 1
	je	SHORT $LN16@DlgMainPro
	sub	eax, 1
	jne	$LN2@DlgMainPro
; Line 102
	push	eax
	call	DWORD PTR __imp__PostQuitMessage@4
; Line 103
	push	0
	push	edi
	call	DWORD PTR __imp__EndDialog@8
	pop	edi
; Line 124
	pop	esi
	mov	eax, 1
	pop	ebx
	mov	ecx, DWORD PTR __$ArrayPad$[ebp]
	xor	ecx, ebp
	call	@__security_check_cookie@4
	mov	esp, ebp
	pop	ebp
	ret	16					; 00000010H
$LN16@DlgMainPro:
; Line 96
	call	?Tocken@@YIXXZ				; Tocken
	call	?CreateResource@@YIHXZ			; CreateResource
	pop	edi
; Line 124
	pop	esi
	mov	eax, 1
	pop	ebx
	mov	ecx, DWORD PTR __$ArrayPad$[ebp]
	xor	ecx, ebp
	call	@__security_check_cookie@4
	mov	esp, ebp
	pop	ebp
	ret	16					; 00000010H
$LN17@DlgMainPro:
; Line 99
	call	?Tocken@@YIXXZ				; Tocken
	call	?CreateResource@@YIHXZ			; CreateResource
	push	1
	push	0
	push	0
	push	DWORD PTR ?ofn@@3UtagOFNA@@A+28
	push	OFFSET ??_C@_04PMOCAHAA@open@
	push	edi
	call	DWORD PTR __imp__ShellExecuteA@24
	pop	edi
; Line 124
	pop	esi
	mov	eax, 1
	pop	ebx
	mov	ecx, DWORD PTR __$ArrayPad$[ebp]
	xor	ecx, ebp
	call	@__security_check_cookie@4
	mov	esp, ebp
	pop	ebp
	ret	16					; 00000010H
$LN31@DlgMainPro:
; Line 73
	cmp	eax, 1004				; 000003ecH
	jne	$LN2@DlgMainPro
; Line 75
	xor	dl, dl
	mov	ecx, edi
	call	?ActiverCommandes@@YIXPAUHWND__@@_N@Z	; ActiverCommandes
; Line 78
	push	88					; 00000058H
	lea	eax, DWORD PTR _ofn$1[ebp]
	mov	BYTE PTR ?tmpXP@@3PADA, 0
	push	0
	push	eax
	call	_memset
	add	esp, 12					; 0000000cH
; Line 79
	mov	DWORD PTR _ofn$1[ebp], 88		; 00000058H
; Line 87
	lea	eax, DWORD PTR _ofn$1[ebp]
	mov	DWORD PTR _ofn$1[ebp+4], edi
	mov	DWORD PTR _ofn$1[ebp+12], OFFSET ??_C@_0CD@BIEAGHIH@Fichier?5Executable?5?$CI?$CK?4exe?$CJ?$AA?$CK?4ex@
	mov	DWORD PTR _ofn$1[ebp+28], OFFSET ?tmpXP@@3PADA ; tmpXP
	push	eax
	mov	DWORD PTR _ofn$1[ebp+32], 260		; 00000104H
	mov	DWORD PTR _ofn$1[ebp+60], OFFSET ??_C@_03JACLIBNI@exe@
	mov	DWORD PTR _ofn$1[ebp+48], OFFSET ??_C@_0CB@JKHJBCAH@Ajouter?5un?5fichier?5Executable?4?4@
	mov	DWORD PTR _ofn$1[ebp+52], 528388	; 00081004H
	call	DWORD PTR __imp__GetOpenFileNameA@4
	cmp	eax, 1
	jne	$LN2@DlgMainPro
; Line 88
	push	0
	push	128					; 00000080H
	push	3
	push	0
	push	0
	push	-2147483648				; 80000000H
	push	DWORD PTR _ofn$1[ebp+28]
	call	DWORD PTR __imp__CreateFileA@28
; Line 89
	push	DWORD PTR _ofn$1[ebp+28]
	mov	esi, DWORD PTR __imp__SetDlgItemTextA@12
	push	1003					; 000003ebH
	push	edi
	call	esi
; Line 90
	mov	edx, OFFSET ?tmpXP@@3PADA		; tmpXP
	dec	edx
	npad	7
$LL34@DlgMainPro:
	mov	al, BYTE PTR [edx+1]
	lea	edx, DWORD PTR [edx+1]
	test	al, al
	jne	SHORT $LL34@DlgMainPro
	mov	eax, DWORD PTR ??_C@_09PJAOEDB@?4manifest@
	mov	DWORD PTR [edx], eax
	mov	eax, DWORD PTR ??_C@_09PJAOEDB@?4manifest@+4
; Line 91
	push	OFFSET ?tmpXP@@3PADA			; tmpXP
	mov	DWORD PTR [edx+4], eax
	mov	ax, WORD PTR ??_C@_09PJAOEDB@?4manifest@+8
	push	1005					; 000003edH
	push	edi
	mov	WORD PTR [edx+8], ax
	call	esi
; Line 92
	mov	dl, 1
	mov	ecx, edi
	call	?ActiverCommandes@@YIXPAUHWND__@@_N@Z	; ActiverCommandes
	pop	edi
; Line 124
	pop	esi
	mov	eax, 1
	pop	ebx
	mov	ecx, DWORD PTR __$ArrayPad$[ebp]
	xor	ecx, ebp
	call	@__security_check_cookie@4
	mov	esp, ebp
	pop	ebp
	ret	16					; 00000010H
$LN33@DlgMainPro:
; Line 38
	cmp	ecx, 275				; 00000113H
	jne	$LN27@DlgMainPro
; Line 60
	lea	eax, DWORD PTR _st$4[ebp]
	push	eax
	call	DWORD PTR __imp__GetLocalTime@4
; Line 61
	movzx	eax, WORD PTR _st$4[ebp+12]
	push	eax
	movzx	eax, WORD PTR _st$4[ebp+10]
	push	eax
	movzx	eax, WORD PTR _st$4[ebp+8]
	push	eax
	movzx	eax, WORD PTR _st$4[ebp]
	push	eax
	movzx	eax, WORD PTR _st$4[ebp+2]
	push	DWORD PTR ?mois@@3PAPADA[eax*4-4]
	movzx	eax, WORD PTR _st$4[ebp+6]
	push	eax
	movzx	eax, WORD PTR _st$4[ebp+4]
	push	DWORD PTR ?jours@@3PAPADA[eax*4]
	push	OFFSET ??_C@_0DG@DOABNEFF@Nous?5sommes?5?$CFs?0?5le?5?$CF2d?5?$CFs?5?$CF4d?5?0@
	push	OFFSET ?Temporaire@@3PADA		; Temporaire
	call	DWORD PTR __imp__wsprintfA
	add	esp, 36					; 00000024H
; Line 62
	push	OFFSET ?Temporaire@@3PADA		; Temporaire
	push	1002					; 000003eaH
; Line 123
	push	edi
	call	DWORD PTR __imp__SetDlgItemTextA@12
$LN2@DlgMainPro:
; Line 124
	pop	edi
	pop	esi
	mov	eax, 1
	pop	ebx
	mov	ecx, DWORD PTR __$ArrayPad$[ebp]
	xor	ecx, ebp
	call	@__security_check_cookie@4
	mov	esp, ebp
	pop	ebp
	ret	16					; 00000010H
$LN26@DlgMainPro:
; Line 119
	push	8421504					; 00808080H
	call	DWORD PTR __imp__CreateSolidBrush@4
	pop	edi
; Line 124
	pop	esi
	pop	ebx
	mov	ecx, DWORD PTR __$ArrayPad$[ebp]
	xor	ecx, ebp
	call	@__security_check_cookie@4
	mov	esp, ebp
	pop	ebp
	ret	16					; 00000010H
$LN32@DlgMainPro:
; Line 38
	add	ecx, -307				; fffffecdH
	cmp	ecx, 5
	ja	$LN27@DlgMainPro
	jmp	DWORD PTR $LN35@DlgMainPro[ecx*4]
$LN20@DlgMainPro:
; Line 109
	push	16711808				; 00ff0080H
$LN54@DlgMainPro:
; Line 124
	push	esi
	call	DWORD PTR __imp__SetTextColor@8
	push	1
	push	esi
	call	DWORD PTR __imp__SetBkMode@8
	pop	edi
	pop	esi
	mov	eax, ebx
	pop	ebx
	mov	ecx, DWORD PTR __$ArrayPad$[ebp]
	xor	ecx, ebp
	call	@__security_check_cookie@4
	mov	esp, ebp
	pop	ebp
	ret	16					; 00000010H
$LN21@DlgMainPro:
; Line 111
	mov	edi, DWORD PTR __imp__SetTextColor@8
	movzx	eax, si
	sub	eax, 1003				; 000003ebH
	je	SHORT $LN22@DlgMainPro
	sub	eax, 2
	je	SHORT $LN23@DlgMainPro
; Line 115
	push	1
	push	esi
	call	DWORD PTR __imp__SetBkMode@8
	pop	edi
; Line 124
	pop	esi
	mov	eax, ebx
	pop	ebx
	mov	ecx, DWORD PTR __$ArrayPad$[ebp]
	xor	ecx, ebp
	call	@__security_check_cookie@4
	mov	esp, ebp
	pop	ebp
	ret	16					; 00000010H
$LN22@DlgMainPro:
; Line 112
	push	65280					; 0000ff00H
	push	esi
	call	edi
$LN23@DlgMainPro:
; Line 113
	push	16711680				; 00ff0000H
	push	esi
	call	edi
; Line 115
	push	1
	push	esi
	call	DWORD PTR __imp__SetBkMode@8
; Line 124
	mov	ecx, DWORD PTR __$ArrayPad$[ebp]
	mov	eax, ebx
	pop	edi
	pop	esi
	xor	ecx, ebp
	pop	ebx
	call	@__security_check_cookie@4
	mov	esp, ebp
	pop	ebp
	ret	16					; 00000010H
$LN24@DlgMainPro:
; Line 117
	push	16711935				; 00ff00ffH
	jmp	$LN54@DlgMainPro
$LN25@DlgMainPro:
; Line 118
	push	16776960				; 00ffff00H
	jmp	$LN54@DlgMainPro
	npad	3
$LN35@DlgMainPro:
; Line 124
	DD	$LN21@DlgMainPro
	DD	$LN24@DlgMainPro
	DD	$LN25@DlgMainPro
	DD	$LN1@DlgMainPro
	DD	$LN27@DlgMainPro
	DD	$LN20@DlgMainPro
?DlgMainProc@@YGJPAUHWND__@@IIJ@Z ENDP			; DlgMainProc
_TEXT	ENDS
; Function compile flags: /Ogtp
;	COMDAT _fprintf
_TEXT	SEGMENT
__Stream$ = 8						; size = 4
__Format$ = 12						; size = 4
_fprintf PROC						; COMDAT
; File C:\Program Files (x86)\Windows Kits\10\Include\10.0.26100.0\ucrt\stdio.h
; Line 837
	push	ebp
	mov	ebp, esp
; Line 645
	lea	eax, DWORD PTR __Format$[ebp+4]
	push	eax
	push	0
	push	DWORD PTR __Format$[ebp]
	push	DWORD PTR __Stream$[ebp]
	call	___local_stdio_printf_options
	push	DWORD PTR [eax+4]
	push	DWORD PTR [eax]
	call	___stdio_common_vfprintf
	add	esp, 24					; 00000018H
; Line 844
	pop	ebp
	ret	0
_fprintf ENDP
_TEXT	ENDS
; Function compile flags: /Ogtp
;	COMDAT ___local_stdio_printf_options
_TEXT	SEGMENT
___local_stdio_printf_options PROC			; COMDAT
; File C:\Program Files (x86)\Windows Kits\10\Include\10.0.26100.0\ucrt\corecrt_stdio_config.h
; Line 92
	mov	eax, OFFSET ?_OptionsStorage@?1??__local_stdio_printf_options@@9@4_KA ; `__local_stdio_printf_options'::`2'::_OptionsStorage
; Line 93
	ret	0
___local_stdio_printf_options ENDP
_TEXT	ENDS
; Function compile flags: /Ogtp
;	COMDAT _WinMain@16
_TEXT	SEGMENT
_hInstance$ = 8						; size = 4
_hPrevInstance$ = 12					; size = 4
_lpCmdLine$ = 16					; size = 4
_nCmdShow$ = 20						; size = 4
_WinMain@16 PROC					; COMDAT
; File X:\Github\AddLookXPtoEXE_x64\AddLookXPtoEXE.cpp
; Line 27
	push	ebp
	mov	ebp, esp
; Line 28
	mov	eax, DWORD PTR _hInstance$[ebp]
; Line 30
	push	0
	push	OFFSET ?DlgMainProc@@YGJPAUHWND__@@IIJ@Z ; DlgMainProc
	push	0
	push	102					; 00000066H
	push	eax
	mov	DWORD PTR ?hInst@@3PAUHINSTANCE__@@A, eax ; hInst
	call	DWORD PTR __imp__DialogBoxParamA@20
; Line 32
	pop	ebp
	ret	16					; 00000010H
_WinMain@16 ENDP
_TEXT	ENDS
END
